target datalayout = "e-m:e-p270:32:32-p271:32:32-p272:64:64-i64:64-i128:128-f80:128-n8:16:32:64-S128"
target triple = "x86_64-pc-linux-gnu"

%class.b3LauncherCL = type { ptr, ptr, ptr, i32, [4 x i8], %class.b3AlignedObjectArray, i32, i8, ptr, %class.b3AlignedObjectArray.0 }
%class.b3AlignedObjectArray = type <{ [4 x i8], i32, i32, [4 x i8], ptr, i8, [7 x i8] }>
%class.b3AlignedObjectArray.0 = type <{ [4 x i8], i32, i32, [4 x i8], ptr, i8, [7 x i8] }>

@gDebugLauncherCL = dso_local global i8 0, align 1
@_ZTV12b3LauncherCL = dso_local unnamed_addr constant { [4 x ptr] } { [4 x ptr] [ptr null, ptr @_ZTI12b3LauncherCL, ptr @_ZN12b3LauncherCLD1Ev, ptr @_ZN12b3LauncherCLD0Ev] }, align 8
@_ZZN12b3LauncherCLC1EP17_cl_command_queueP10_cl_kernelPKcE7counter = internal global i32 0, align 4
@.str = private unnamed_addr constant [41 x i8] c"[%d] Prepare to launch OpenCL kernel %s\0A\00", align 1

; Function Attrs: mustprogress uwtable
define linkonce_odr dso_local void @_ZN18b3AlignedAllocatorI15b3KernelArgDataLj16EE10deallocateEPS0_(ptr noundef nonnull align 1 dereferenceable(1) %0, ptr noundef %1) #0 comdat align 2 {
  %3 = alloca ptr, align 8
  %4 = alloca ptr, align 8
  store ptr %0, ptr %3, align 8, !tbaa !89
  store ptr %1, ptr %4, align 8, !tbaa !56
  %5 = load ptr, ptr %4, align 8, !tbaa !56
  call void @_Z21b3AlignedFreeInternalPv(ptr noundef %5)
  ret void
}

; Function Attrs: mustprogress uwtable
define linkonce_odr dso_local void @_ZN18b3AlignedAllocatorIP13b3OpenCLArrayIhELj16EE10deallocateEPS2_(ptr noundef nonnull align 1 dereferenceable(1) %0, ptr noundef %1) #0 comdat align 2 {
  %3 = alloca ptr, align 8
  %4 = alloca ptr, align 8
  store ptr %0, ptr %3, align 8, !tbaa !93
  store ptr %1, ptr %4, align 8, !tbaa !81
  %5 = load ptr, ptr %4, align 8, !tbaa !81
  call void @_Z21b3AlignedFreeInternalPv(ptr noundef %5)
  ret void
}

; Function Attrs: inlinehint mustprogress uwtable
define linkonce_odr dso_local void @_ZN20b3AlignedObjectArrayI15b3KernelArgDataE10deallocateEv(ptr noundef nonnull align 8 dereferenceable(25) %0) #6 comdat align 2 {
  %2 = alloca ptr, align 8
  store ptr %0, ptr %2, align 8, !tbaa !36
  %3 = load ptr, ptr %2, align 8
  %4 = getelementptr inbounds nuw %class.b3AlignedObjectArray, ptr %3, i32 0, i32 4
  %5 = load ptr, ptr %4, align 8, !tbaa !57
  %6 = icmp ne ptr %5, null
  br i1 %6, label %7, label %16

7:                                                ; preds = %1
  %8 = getelementptr inbounds nuw %class.b3AlignedObjectArray, ptr %3, i32 0, i32 5
  %9 = load i8, ptr %8, align 8, !tbaa !91, !range !32, !noundef !33
  %10 = trunc i8 %9 to i1
  br i1 %10, label %11, label %14

11:                                               ; preds = %7
  %12 = getelementptr inbounds nuw %class.b3AlignedObjectArray, ptr %3, i32 0, i32 4
  %13 = load ptr, ptr %12, align 8, !tbaa !57
  call void @_ZN18b3AlignedAllocatorI15b3KernelArgDataLj16EE10deallocateEPS0_(ptr noundef nonnull align 1 dereferenceable(1) %3, ptr noundef %13)
  br label %14

14:                                               ; preds = %11, %7
  %15 = getelementptr inbounds nuw %class.b3AlignedObjectArray, ptr %3, i32 0, i32 4
  store ptr null, ptr %15, align 8, !tbaa !57
  br label %16

16:                                               ; preds = %14, %1
  ret void
}

; Function Attrs: inlinehint mustprogress nounwind uwtable
define linkonce_odr dso_local void @_ZN20b3AlignedObjectArrayI15b3KernelArgDataE7destroyEii(ptr noundef nonnull align 8 dereferenceable(25) %0, i32 noundef %1, i32 noundef %2) #4 comdat align 2 {
  %4 = alloca ptr, align 8
  %5 = alloca i32, align 4
  %6 = alloca i32, align 4
  %7 = alloca i32, align 4
  store ptr %0, ptr %4, align 8, !tbaa !36
  store i32 %1, ptr %5, align 4, !tbaa !34
  store i32 %2, ptr %6, align 4, !tbaa !34
  call void @llvm.lifetime.start.p0(i64 4, ptr %7) #10
  %8 = load i32, ptr %5, align 4, !tbaa !34
  store i32 %8, ptr %7, align 4, !tbaa !34
  br label %9

9:                                                ; preds = %14, %3
  %10 = load i32, ptr %7, align 4, !tbaa !34
  %11 = load i32, ptr %6, align 4, !tbaa !34
  %12 = icmp slt i32 %10, %11
  br i1 %12, label %13, label %17

13:                                               ; preds = %9
  br label %14

14:                                               ; preds = %13
  %15 = load i32, ptr %7, align 4, !tbaa !34
  %16 = add nsw i32 %15, 1
  store i32 %16, ptr %7, align 4, !tbaa !34
  br label %9, !llvm.loop !97

17:                                               ; preds = %9
  call void @llvm.lifetime.end.p0(i64 4, ptr %7) #10
  ret void
}

; Function Attrs: inlinehint mustprogress nounwind uwtable
define linkonce_odr dso_local noundef i32 @_ZNK20b3AlignedObjectArrayI15b3KernelArgDataE4sizeEv(ptr noundef nonnull align 8 dereferenceable(25) %0) #4 comdat align 2 {
  %2 = alloca ptr, align 8
  store ptr %0, ptr %2, align 8, !tbaa !36
  %3 = load ptr, ptr %2, align 8
  %4 = getelementptr inbounds nuw %class.b3AlignedObjectArray, ptr %3, i32 0, i32 1
  %5 = load i32, ptr %4, align 4, !tbaa !58
  ret i32 %5
}

; Function Attrs: inlinehint mustprogress uwtable
define linkonce_odr dso_local void @_ZN20b3AlignedObjectArrayIP13b3OpenCLArrayIhEE10deallocateEv(ptr noundef nonnull align 8 dereferenceable(25) %0) #6 comdat align 2 {
  %2 = alloca ptr, align 8
  store ptr %0, ptr %2, align 8, !tbaa !38
  %3 = load ptr, ptr %2, align 8
  %4 = getelementptr inbounds nuw %class.b3AlignedObjectArray.0, ptr %3, i32 0, i32 4
  %5 = load ptr, ptr %4, align 8, !tbaa !45
  %6 = icmp ne ptr %5, null
  br i1 %6, label %7, label %16

7:                                                ; preds = %1
  %8 = getelementptr inbounds nuw %class.b3AlignedObjectArray.0, ptr %3, i32 0, i32 5
  %9 = load i8, ptr %8, align 8, !tbaa !95, !range !32, !noundef !33
  %10 = trunc i8 %9 to i1
  br i1 %10, label %11, label %14

11:                                               ; preds = %7
  %12 = getelementptr inbounds nuw %class.b3AlignedObjectArray.0, ptr %3, i32 0, i32 4
  %13 = load ptr, ptr %12, align 8, !tbaa !45
  call void @_ZN18b3AlignedAllocatorIP13b3OpenCLArrayIhELj16EE10deallocateEPS2_(ptr noundef nonnull align 1 dereferenceable(1) %3, ptr noundef %13)
  br label %14

14:                                               ; preds = %11, %7
  %15 = getelementptr inbounds nuw %class.b3AlignedObjectArray.0, ptr %3, i32 0, i32 4
  store ptr null, ptr %15, align 8, !tbaa !45
  br label %16

16:                                               ; preds = %14, %1
  ret void
}

; Function Attrs: inlinehint mustprogress nounwind uwtable
define linkonce_odr dso_local void @_ZN20b3AlignedObjectArrayIP13b3OpenCLArrayIhEE7destroyEii(ptr noundef nonnull align 8 dereferenceable(25) %0, i32 noundef %1, i32 noundef %2) #4 comdat align 2 {
  %4 = alloca ptr, align 8
  %5 = alloca i32, align 4
  %6 = alloca i32, align 4
  %7 = alloca i32, align 4
  store ptr %0, ptr %4, align 8, !tbaa !38
  store i32 %1, ptr %5, align 4, !tbaa !34
  store i32 %2, ptr %6, align 4, !tbaa !34
  call void @llvm.lifetime.start.p0(i64 4, ptr %7) #10
  %8 = load i32, ptr %5, align 4, !tbaa !34
  store i32 %8, ptr %7, align 4, !tbaa !34
  br label %9

9:                                                ; preds = %14, %3
  %10 = load i32, ptr %7, align 4, !tbaa !34
  %11 = load i32, ptr %6, align 4, !tbaa !34
  %12 = icmp slt i32 %10, %11
  br i1 %12, label %13, label %17

13:                                               ; preds = %9
  br label %14

14:                                               ; preds = %13
  %15 = load i32, ptr %7, align 4, !tbaa !34
  %16 = add nsw i32 %15, 1
  store i32 %16, ptr %7, align 4, !tbaa !34
  br label %9, !llvm.loop !98

17:                                               ; preds = %9
  call void @llvm.lifetime.end.p0(i64 4, ptr %7) #10
  ret void
}

; Function Attrs: inlinehint mustprogress nounwind uwtable
define linkonce_odr dso_local noundef i32 @_ZNK20b3AlignedObjectArrayIP13b3OpenCLArrayIhEE4sizeEv(ptr noundef nonnull align 8 dereferenceable(25) %0) #4 comdat align 2 {
  %2 = alloca ptr, align 8
  store ptr %0, ptr %2, align 8, !tbaa !38
  %3 = load ptr, ptr %2, align 8
  %4 = getelementptr inbounds nuw %class.b3AlignedObjectArray.0, ptr %3, i32 0, i32 1
  %5 = load i32, ptr %4, align 4, !tbaa !44
  ret i32 %5
}

; Function Attrs: inlinehint mustprogress uwtable
define linkonce_odr dso_local void @_ZN20b3AlignedObjectArrayI15b3KernelArgDataE5clearEv(ptr noundef nonnull align 8 dereferenceable(25) %0) #6 comdat align 2 {
  %2 = alloca ptr, align 8
  store ptr %0, ptr %2, align 8, !tbaa !36
  %3 = load ptr, ptr %2, align 8
  %4 = call noundef i32 @_ZNK20b3AlignedObjectArrayI15b3KernelArgDataE4sizeEv(ptr noundef nonnull align 8 dereferenceable(25) %3)
  call void @_ZN20b3AlignedObjectArrayI15b3KernelArgDataE7destroyEii(ptr noundef nonnull align 8 dereferenceable(25) %3, i32 noundef 0, i32 noundef %4)
  call void @_ZN20b3AlignedObjectArrayI15b3KernelArgDataE10deallocateEv(ptr noundef nonnull align 8 dereferenceable(25) %3)
  call void @_ZN20b3AlignedObjectArrayI15b3KernelArgDataE4initEv(ptr noundef nonnull align 8 dereferenceable(25) %3)
  ret void
}

; Function Attrs: noinline noreturn nounwind uwtable
define linkonce_odr hidden void @__clang_call_terminate(ptr noundef %0) #5 comdat {
  %2 = call ptr @__cxa_begin_catch(ptr %0) #10
  call void @_ZSt9terminatev() #11
  unreachable
}

; Function Attrs: inlinehint mustprogress uwtable
define linkonce_odr dso_local void @_ZN20b3AlignedObjectArrayIP13b3OpenCLArrayIhEE5clearEv(ptr noundef nonnull align 8 dereferenceable(25) %0) #6 comdat align 2 {
  %2 = alloca ptr, align 8
  store ptr %0, ptr %2, align 8, !tbaa !38
  %3 = load ptr, ptr %2, align 8
  %4 = call noundef i32 @_ZNK20b3AlignedObjectArrayIP13b3OpenCLArrayIhEE4sizeEv(ptr noundef nonnull align 8 dereferenceable(25) %3)
  call void @_ZN20b3AlignedObjectArrayIP13b3OpenCLArrayIhEE7destroyEii(ptr noundef nonnull align 8 dereferenceable(25) %3, i32 noundef 0, i32 noundef %4)
  call void @_ZN20b3AlignedObjectArrayIP13b3OpenCLArrayIhEE10deallocateEv(ptr noundef nonnull align 8 dereferenceable(25) %3)
  call void @_ZN20b3AlignedObjectArrayIP13b3OpenCLArrayIhEE4initEv(ptr noundef nonnull align 8 dereferenceable(25) %3)
  ret void
}

; Function Attrs: inlinehint mustprogress nounwind uwtable
define linkonce_odr dso_local void @_ZN20b3AlignedObjectArrayIP13b3OpenCLArrayIhEE4initEv(ptr noundef nonnull align 8 dereferenceable(25) %0) #4 comdat align 2 {
  %2 = alloca ptr, align 8
  store ptr %0, ptr %2, align 8, !tbaa !38
  %3 = load ptr, ptr %2, align 8
  %4 = getelementptr inbounds nuw %class.b3AlignedObjectArray.0, ptr %3, i32 0, i32 5
  store i8 1, ptr %4, align 8, !tbaa !95
  %5 = getelementptr inbounds nuw %class.b3AlignedObjectArray.0, ptr %3, i32 0, i32 4
  store ptr null, ptr %5, align 8, !tbaa !45
  %6 = getelementptr inbounds nuw %class.b3AlignedObjectArray.0, ptr %3, i32 0, i32 1
  store i32 0, ptr %6, align 4, !tbaa !44
  %7 = getelementptr inbounds nuw %class.b3AlignedObjectArray.0, ptr %3, i32 0, i32 2
  store i32 0, ptr %7, align 8, !tbaa !96
  ret void
}

; Function Attrs: mustprogress nounwind uwtable
define linkonce_odr dso_local void @_ZN18b3AlignedAllocatorIP13b3OpenCLArrayIhELj16EEC2Ev(ptr noundef nonnull align 1 dereferenceable(1) %0) unnamed_addr #2 comdat align 2 {
  %2 = alloca ptr, align 8
  store ptr %0, ptr %2, align 8, !tbaa !93
  ret void
}

; Function Attrs: inlinehint mustprogress nounwind uwtable
define linkonce_odr dso_local void @_ZN20b3AlignedObjectArrayI15b3KernelArgDataE4initEv(ptr noundef nonnull align 8 dereferenceable(25) %0) #4 comdat align 2 {
  %2 = alloca ptr, align 8
  store ptr %0, ptr %2, align 8, !tbaa !36
  %3 = load ptr, ptr %2, align 8
  %4 = getelementptr inbounds nuw %class.b3AlignedObjectArray, ptr %3, i32 0, i32 5
  store i8 1, ptr %4, align 8, !tbaa !91
  %5 = getelementptr inbounds nuw %class.b3AlignedObjectArray, ptr %3, i32 0, i32 4
  store ptr null, ptr %5, align 8, !tbaa !57
  %6 = getelementptr inbounds nuw %class.b3AlignedObjectArray, ptr %3, i32 0, i32 1
  store i32 0, ptr %6, align 4, !tbaa !58
  %7 = getelementptr inbounds nuw %class.b3AlignedObjectArray, ptr %3, i32 0, i32 2
  store i32 0, ptr %7, align 8, !tbaa !92
  ret void
}

; Function Attrs: mustprogress nounwind uwtable
define linkonce_odr dso_local void @_ZN18b3AlignedAllocatorI15b3KernelArgDataLj16EEC2Ev(ptr noundef nonnull align 1 dereferenceable(1) %0) unnamed_addr #2 comdat align 2 {
  %2 = alloca ptr, align 8
  store ptr %0, ptr %2, align 8, !tbaa !89
  ret void
}

; Function Attrs: mustprogress nounwind uwtable
define linkonce_odr dso_local void @_ZN20b3AlignedObjectArrayI15b3KernelArgDataED2Ev(ptr noundef nonnull align 8 dereferenceable(25) %0) unnamed_addr #2 comdat align 2 personality ptr @__gxx_personality_v0 {
  %2 = alloca ptr, align 8
  store ptr %0, ptr %2, align 8, !tbaa !36
  %3 = load ptr, ptr %2, align 8
  invoke void @_ZN20b3AlignedObjectArrayI15b3KernelArgDataE5clearEv(ptr noundef nonnull align 8 dereferenceable(25) %3)
          to label %4 unwind label %5

4:                                                ; preds = %1
  ret void

5:                                                ; preds = %1
  %6 = landingpad { ptr, i32 }
          catch ptr null
  %7 = extractvalue { ptr, i32 } %6, 0
  call void @__clang_call_terminate(ptr %7) #11
  unreachable
}

; Function Attrs: mustprogress nounwind uwtable
define linkonce_odr dso_local void @_ZN20b3AlignedObjectArrayIP13b3OpenCLArrayIhEED2Ev(ptr noundef nonnull align 8 dereferenceable(25) %0) unnamed_addr #2 comdat align 2 personality ptr @__gxx_personality_v0 {
  %2 = alloca ptr, align 8
  store ptr %0, ptr %2, align 8, !tbaa !38
  %3 = load ptr, ptr %2, align 8
  invoke void @_ZN20b3AlignedObjectArrayIP13b3OpenCLArrayIhEE5clearEv(ptr noundef nonnull align 8 dereferenceable(25) %3)
          to label %4 unwind label %5

4:                                                ; preds = %1
  ret void

5:                                                ; preds = %1
  %6 = landingpad { ptr, i32 }
          catch ptr null
  %7 = extractvalue { ptr, i32 } %6, 0
  call void @__clang_call_terminate(ptr %7) #11
  unreachable
}

; Function Attrs: mustprogress uwtable
define linkonce_odr dso_local void @_ZN20b3AlignedObjectArrayIP13b3OpenCLArrayIhEEC2Ev(ptr noundef nonnull align 8 dereferenceable(25) %0) unnamed_addr #0 comdat align 2 {
  %2 = alloca ptr, align 8
  store ptr %0, ptr %2, align 8, !tbaa !38
  %3 = load ptr, ptr %2, align 8
  call void @_ZN18b3AlignedAllocatorIP13b3OpenCLArrayIhELj16EEC2Ev(ptr noundef nonnull align 1 dereferenceable(1) %3)
  call void @_ZN20b3AlignedObjectArrayIP13b3OpenCLArrayIhEE4initEv(ptr noundef nonnull align 8 dereferenceable(25) %3)
  ret void
}

; Function Attrs: mustprogress uwtable
define linkonce_odr dso_local void @_ZN20b3AlignedObjectArrayI15b3KernelArgDataEC2Ev(ptr noundef nonnull align 8 dereferenceable(25) %0) unnamed_addr #0 comdat align 2 {
  %2 = alloca ptr, align 8
  store ptr %0, ptr %2, align 8, !tbaa !36
  %3 = load ptr, ptr %2, align 8
  call void @_ZN18b3AlignedAllocatorI15b3KernelArgDataLj16EEC2Ev(ptr noundef nonnull align 1 dereferenceable(1) %3)
  call void @_ZN20b3AlignedObjectArrayI15b3KernelArgDataE4initEv(ptr noundef nonnull align 8 dereferenceable(25) %3)
  ret void
}

; Function Attrs: mustprogress uwtable
define dso_local void @_ZN12b3LauncherCLC2EP17_cl_command_queueP10_cl_kernelPKc(ptr noundef nonnull align 8 dereferenceable(112) %0, ptr noundef %1, ptr noundef %2, ptr noundef %3) unnamed_addr #0 align 2 personality ptr @__gxx_personality_v0 {
  %5 = alloca ptr, align 8
  %6 = alloca ptr, align 8
  %7 = alloca ptr, align 8
  %8 = alloca ptr, align 8
  %9 = alloca ptr, align 8
  %10 = alloca i32, align 4
  store ptr %0, ptr %5, align 8, !tbaa !4
  store ptr %1, ptr %6, align 8, !tbaa !9
  store ptr %2, ptr %7, align 8, !tbaa !11
  store ptr %3, ptr %8, align 8, !tbaa !13
  %11 = load ptr, ptr %5, align 8
  store ptr getelementptr inbounds inrange(-16, 16) ({ [4 x ptr] }, ptr @_ZTV12b3LauncherCL, i32 0, i32 0, i32 2), ptr %11, align 8, !tbaa !15
  %12 = getelementptr inbounds nuw %class.b3LauncherCL, ptr %11, i32 0, i32 1
  %13 = load ptr, ptr %6, align 8, !tbaa !9
  store ptr %13, ptr %12, align 8, !tbaa !17
  %14 = getelementptr inbounds nuw %class.b3LauncherCL, ptr %11, i32 0, i32 2
  %15 = load ptr, ptr %7, align 8, !tbaa !11
  store ptr %15, ptr %14, align 8, !tbaa !27
  %16 = getelementptr inbounds nuw %class.b3LauncherCL, ptr %11, i32 0, i32 3
  store i32 0, ptr %16, align 8, !tbaa !28
  %17 = getelementptr inbounds nuw %class.b3LauncherCL, ptr %11, i32 0, i32 5
  call void @_ZN20b3AlignedObjectArrayI15b3KernelArgDataEC2Ev(ptr noundef nonnull align 8 dereferenceable(25) %17)
  %18 = getelementptr inbounds nuw %class.b3LauncherCL, ptr %11, i32 0, i32 7
  store i8 0, ptr %18, align 4, !tbaa !29
  %19 = getelementptr inbounds nuw %class.b3LauncherCL, ptr %11, i32 0, i32 8
  %20 = load ptr, ptr %8, align 8, !tbaa !13
  store ptr %20, ptr %19, align 8, !tbaa !30
  %21 = getelementptr inbounds nuw %class.b3LauncherCL, ptr %11, i32 0, i32 9
  invoke void @_ZN20b3AlignedObjectArrayIP13b3OpenCLArrayIhEEC2Ev(ptr noundef nonnull align 8 dereferenceable(25) %21)
          to label %22 unwind label %31

22:                                               ; preds = %4
  %23 = load i8, ptr @gDebugLauncherCL, align 1, !tbaa !31, !range !32, !noundef !33
  %24 = trunc i8 %23 to i1
  br i1 %24, label %25, label %39

25:                                               ; preds = %22
  %26 = load i32, ptr @_ZZN12b3LauncherCLC1EP17_cl_command_queueP10_cl_kernelPKcE7counter, align 4, !tbaa !34
  %27 = add nsw i32 %26, 1
  store i32 %27, ptr @_ZZN12b3LauncherCLC1EP17_cl_command_queueP10_cl_kernelPKcE7counter, align 4, !tbaa !34
  %28 = load ptr, ptr %8, align 8, !tbaa !13
  %29 = invoke i32 (ptr, ...) @printf(ptr noundef @.str, i32 noundef %26, ptr noundef %28)
          to label %30 unwind label %35

30:                                               ; preds = %25
  br label %39

31:                                               ; preds = %4
  %32 = landingpad { ptr, i32 }
          cleanup
  %33 = extractvalue { ptr, i32 } %32, 0
  store ptr %33, ptr %9, align 8
  %34 = extractvalue { ptr, i32 } %32, 1
  store i32 %34, ptr %10, align 4
  br label %41

35:                                               ; preds = %25
  %36 = landingpad { ptr, i32 }
          cleanup
  %37 = extractvalue { ptr, i32 } %36, 0
  store ptr %37, ptr %9, align 8
  %38 = extractvalue { ptr, i32 } %36, 1
  store i32 %38, ptr %10, align 4
  call void @_ZN20b3AlignedObjectArrayIP13b3OpenCLArrayIhEED2Ev(ptr noundef nonnull align 8 dereferenceable(25) %21) #10
  br label %41

39:                                               ; preds = %30, %22
  %40 = getelementptr inbounds nuw %class.b3LauncherCL, ptr %11, i32 0, i32 6
  store i32 4, ptr %40, align 8, !tbaa !35
  ret void

41:                                               ; preds = %35, %31
  call void @_ZN20b3AlignedObjectArrayI15b3KernelArgDataED2Ev(ptr noundef nonnull align 8 dereferenceable(25) %17) #10
  br label %42

42:                                               ; preds = %41
  %43 = load ptr, ptr %9, align 8
  %44 = load i32, ptr %10, align 4
  %45 = insertvalue { ptr, i32 } poison, ptr %43, 0
  %46 = insertvalue { ptr, i32 } %45, i32 %44, 1
  resume { ptr, i32 } %46
}