; Function Attrs: mustprogress nofree nounwind uwtable
define dso_local void @_ZN12b3LauncherCLC2EP17_cl_command_queueP10_cl_kernelPKc(ptr noundef nonnull writeonly align 8 captures(none) dereferenceable(112) initializes((0, 28), (36, 44), (48, 57), (64, 69), (72, 80), (84, 92), (96, 105)) %0, ptr noundef %1, ptr noundef %2, ptr noundef %3) unnamed_addr #0 align 2 personality ptr @__gxx_personality_v0 {
  store ptr getelementptr inbounds nuw inrange(-16, 16) (i8, ptr @_ZTV12b3LauncherCL, i64 16), ptr %0, align 8, !tbaa !4
  %5 = getelementptr inbounds nuw i8, ptr %0, i64 8
  store ptr %1, ptr %5, align 8, !tbaa !7
  %6 = getelementptr inbounds nuw i8, ptr %0, i64 16
  store ptr %2, ptr %6, align 8, !tbaa !22
  %7 = getelementptr inbounds nuw i8, ptr %0, i64 24
  store i32 0, ptr %7, align 8, !tbaa !23
  %8 = getelementptr inbounds nuw i8, ptr %0, i64 56
  store i8 1, ptr %8, align 8, !tbaa !24
  %9 = getelementptr inbounds nuw i8, ptr %0, i64 48
  store ptr null, ptr %9, align 8, !tbaa !25
  %10 = getelementptr inbounds nuw i8, ptr %0, i64 36
  store i32 0, ptr %10, align 4, !tbaa !26
  %11 = getelementptr inbounds nuw i8, ptr %0, i64 40
  store i32 0, ptr %11, align 8, !tbaa !27
  %12 = getelementptr inbounds nuw i8, ptr %0, i64 68
  store i8 0, ptr %12, align 4, !tbaa !28
  %13 = getelementptr inbounds nuw i8, ptr %0, i64 72
  store ptr %3, ptr %13, align 8, !tbaa !29
  %14 = getelementptr inbounds nuw i8, ptr %0, i64 104
  store i8 1, ptr %14, align 8, !tbaa !30
  %15 = getelementptr inbounds nuw i8, ptr %0, i64 96
  store ptr null, ptr %15, align 8, !tbaa !31
  %16 = getelementptr inbounds nuw i8, ptr %0, i64 84
  store i32 0, ptr %16, align 4, !tbaa !32
  %17 = getelementptr inbounds nuw i8, ptr %0, i64 88
  store i32 0, ptr %17, align 8, !tbaa !33
  %18 = load i8, ptr @gDebugLauncherCL, align 1, !tbaa !34, !range !35, !noundef !36
  %19 = trunc nuw i8 %18 to i1
  br i1 %19, label %20, label %24

20:                                               ; preds = %4
  %21 = load i32, ptr @_ZZN12b3LauncherCLC1EP17_cl_command_queueP10_cl_kernelPKcE7counter, align 4, !tbaa !37
  %22 = add nsw i32 %21, 1
  store i32 %22, ptr @_ZZN12b3LauncherCLC1EP17_cl_command_queueP10_cl_kernelPKcE7counter, align 4, !tbaa !37
  %23 = tail call i32 (ptr, ...) @printf(ptr noundef nonnull dereferenceable(1) @.str, i32 noundef %21, ptr noundef %3)
  br label %24

24:                                               ; preds = %20, %4
  %25 = getelementptr inbounds nuw i8, ptr %0, i64 64
  store i32 4, ptr %25, align 8, !tbaa !38
  ret void
}